; Function Attrs: nounwind uwtable
define noalias noundef ptr @Abc_ManReadFile(ptr noundef %0) local_unnamed_addr #2 {
  %2 = tail call noalias ptr @fopen(ptr noundef %0, ptr noundef nonnull @.str)
  %3 = icmp eq ptr %2, null
  br i1 %3, label %4, label %6

4:                                                ; preds = %1
  %5 = tail call i32 (ptr, ...) @printf(ptr noundef nonnull dereferenceable(1) @.str.1, ptr noundef %0)
  br label %68

6:                                                ; preds = %1
  %7 = tail call noalias dereferenceable_or_null(16) ptr @malloc(i64 noundef 16) #14
  %8 = getelementptr inbounds nuw i8, ptr %7, i64 4
  store i32 0, ptr %8, align 4
  store i32 100, ptr %7, align 8
  %9 = tail call noalias dereferenceable_or_null(100) ptr @malloc(i64 noundef 100) #14
  %10 = getelementptr inbounds nuw i8, ptr %7, i64 8
  store ptr %9, ptr %10, align 8
  %11 = tail call i32 @fgetc(ptr noundef nonnull %2)
  %.not18 = icmp eq i32 %11, -1
  br i1 %.not18, label %.Vec_StrGrow.exit10_crit_edge.i11, label %.lr.ph

.lr.ph:                                           ; preds = %6, %Vec_StrPush.exit
  %12 = phi i32 [ %40, %Vec_StrPush.exit ], [ %11, %6 ]
  %13 = trunc i32 %12 to i8
  %14 = load i32, ptr %8, align 4
  %15 = load i32, ptr %7, align 8
  %16 = icmp eq i32 %14, %15
  br i1 %16, label %17, label %.Vec_StrGrow.exit10_crit_edge.i

.Vec_StrGrow.exit10_crit_edge.i:                  ; preds = %.lr.ph
  %.pre.i = load ptr, ptr %10, align 8
  br label %Vec_StrPush.exit

17:                                               ; preds = %.lr.ph
  %18 = icmp slt i32 %14, 16
  br i1 %18, label %19, label %26

19:                                               ; preds = %17
  %20 = load ptr, ptr %10, align 8
  %.not9.i.i = icmp eq ptr %20, null
  br i1 %.not9.i.i, label %23, label %21

21:                                               ; preds = %19
  %22 = tail call dereferenceable_or_null(16) ptr @realloc(ptr noundef nonnull %20, i64 noundef 16) #15
  br label %Vec_StrGrow.exit.i

23:                                               ; preds = %19
  %24 = tail call noalias dereferenceable_or_null(16) ptr @malloc(i64 noundef 16) #14
  br label %Vec_StrGrow.exit.i

Vec_StrGrow.exit.i:                               ; preds = %23, %21
  %25 = phi ptr [ %22, %21 ], [ %24, %23 ]
  store ptr %25, ptr %10, align 8
  store i32 16, ptr %7, align 8
  br label %Vec_StrPush.exit

26:                                               ; preds = %17
  %27 = shl nuw nsw i32 %14, 1
  %28 = load ptr, ptr %10, align 8
  %.not9.i9.i = icmp eq ptr %28, null
  %29 = zext nneg i32 %27 to i64
  br i1 %.not9.i9.i, label %32, label %30

30:                                               ; preds = %26
  %31 = tail call ptr @realloc(ptr noundef nonnull %28, i64 noundef %29) #15
  br label %34

32:                                               ; preds = %26
  %33 = tail call noalias ptr @malloc(i64 noundef %29) #14
  br label %34

34:                                               ; preds = %32, %30
  %35 = phi ptr [ %31, %30 ], [ %33, %32 ]
  store ptr %35, ptr %10, align 8
  store i32 %27, ptr %7, align 8
  br label %Vec_StrPush.exit

Vec_StrPush.exit:                                 ; preds = %.Vec_StrGrow.exit10_crit_edge.i, %Vec_StrGrow.exit.i, %34
  %36 = phi ptr [ %.pre.i, %.Vec_StrGrow.exit10_crit_edge.i ], [ %35, %34 ], [ %25, %Vec_StrGrow.exit.i ]
  %37 = add nsw i32 %14, 1
  store i32 %37, ptr %8, align 4
  %38 = sext i32 %14 to i64
  %39 = getelementptr inbounds i8, ptr %36, i64 %38
  store i8 %13, ptr %39, align 1
  %40 = tail call i32 @fgetc(ptr noundef nonnull %2)
  %.not = icmp eq i32 %40, -1
  br i1 %.not, label %._crit_edge, label %.lr.ph, !llvm.loop !6

._crit_edge:                                      ; preds = %Vec_StrPush.exit
  %.pre = load i32, ptr %8, align 4
  %.pre19 = load i32, ptr %7, align 8
  %41 = icmp eq i32 %.pre, %.pre19
  br i1 %41, label %43, label %.Vec_StrGrow.exit10_crit_edge.i11

.Vec_StrGrow.exit10_crit_edge.i11:                ; preds = %6, %._crit_edge
  %42 = phi i32 [ %.pre, %._crit_edge ], [ 0, %6 ]
  %.pre.i13 = load ptr, ptr %10, align 8
  br label %Vec_StrPush.exit17

43:                                               ; preds = %._crit_edge
  %44 = icmp slt i32 %.pre19, 16
  br i1 %44, label %45, label %52

45:                                               ; preds = %43
  %46 = load ptr, ptr %10, align 8
  %.not9.i.i15 = icmp eq ptr %46, null
  br i1 %.not9.i.i15, label %49, label %47

47:                                               ; preds = %45
  %48 = tail call dereferenceable_or_null(16) ptr @realloc(ptr noundef nonnull %46, i64 noundef 16) #15
  br label %Vec_StrGrow.exit.i16

49:                                               ; preds = %45
  %50 = tail call noalias dereferenceable_or_null(16) ptr @malloc(i64 noundef 16) #14
  br label %Vec_StrGrow.exit.i16

Vec_StrGrow.exit.i16:                             ; preds = %49, %47
  %51 = phi ptr [ %48, %47 ], [ %50, %49 ]
  store ptr %51, ptr %10, align 8
  store i32 16, ptr %7, align 8
  br label %Vec_StrPush.exit17

52:                                               ; preds = %43
  %53 = shl nuw nsw i32 %.pre19, 1
  %54 = load ptr, ptr %10, align 8
  %.not9.i9.i14 = icmp eq ptr %54, null
  %55 = zext nneg i32 %53 to i64
  br i1 %.not9.i9.i14, label %58, label %56

56:                                               ; preds = %52
  %57 = tail call ptr @realloc(ptr noundef nonnull %54, i64 noundef %55) #15
  br label %60

58:                                               ; preds = %52
  %59 = tail call noalias ptr @malloc(i64 noundef %55) #14
  br label %60

60:                                               ; preds = %58, %56
  %61 = phi ptr [ %57, %56 ], [ %59, %58 ]
  store ptr %61, ptr %10, align 8
  store i32 %53, ptr %7, align 8
  br label %Vec_StrPush.exit17

Vec_StrPush.exit17:                               ; preds = %.Vec_StrGrow.exit10_crit_edge.i11, %Vec_StrGrow.exit.i16, %60
  %62 = phi i32 [ %42, %.Vec_StrGrow.exit10_crit_edge.i11 ], [ %.pre, %60 ], [ %.pre, %Vec_StrGrow.exit.i16 ]
  %63 = phi ptr [ %.pre.i13, %.Vec_StrGrow.exit10_crit_edge.i11 ], [ %61, %60 ], [ %51, %Vec_StrGrow.exit.i16 ]
  %64 = add nsw i32 %62, 1
  store i32 %64, ptr %8, align 4
  %65 = sext i32 %62 to i64
  %66 = getelementptr inbounds i8, ptr %63, i64 %65
  store i8 0, ptr %66, align 1
  %67 = tail call i32 @fclose(ptr noundef nonnull %2)
  br label %68

68:                                               ; preds = %Vec_StrPush.exit17, %4
  %.0 = phi ptr [ null, %4 ], [ %7, %Vec_StrPush.exit17 ]
  ret ptr %.0
}